ccopy_reg
_reconstructor
p0
(cneat.genome
DefaultGenome
p1
c__builtin__
object
p2
Ntp3
Rp4
(dp5
S'connections'
p6
(dp7
(I-1
I5
tp8
g0
(cneat.genes
DefaultConnectionGene
p9
g2
Ntp10
Rp11
(dp12
S'enabled'
p13
I01
sS'weight'
p14
F-0.2574413563512965
sS'key'
p15
g8
sbs(I5
I0
tp16
g0
(g9
g2
Ntp17
Rp18
(dp19
g13
I01
sg14
F1.206903046357866
sg15
g16
sbs(I-1
I7
tp20
g0
(g9
g2
Ntp21
Rp22
(dp23
g13
I01
sg14
F0.5157490602629292
sg15
g20
sbs(I7
I5
tp24
g0
(g9
g2
Ntp25
Rp26
(dp27
g13
I01
sg14
F-1.74024045318091
sg15
g24
sbs(I4
I3
tp28
g0
(g9
g2
Ntp29
Rp30
(dp31
g13
I01
sg14
F-1.1406564825852823
sg15
g28
sbs(I0
I4
tp32
g0
(g9
g2
Ntp33
Rp34
(dp35
g13
I01
sg14
F1.048168318892275
sg15
g32
sbs(I-2
I6
tp36
g0
(g9
g2
Ntp37
Rp38
(dp39
g13
I01
sg14
F1.3230411006879539
sg15
g36
sbs(I4
I1
tp40
g0
(g9
g2
Ntp41
Rp42
(dp43
g13
I00
sg14
F0.9847748045967296
sg15
g40
sbs(I-1
I6
tp44
g0
(g9
g2
Ntp45
Rp46
(dp47
g13
I01
sg14
F0.24402867387062488
sg15
g44
sbssS'nodes'
p48
(dp49
I0
g0
(cneat.genes
DefaultNodeGene
p50
g2
Ntp51
Rp52
(dp53
S'activation'
p54
S'tanh'
p55
sS'bias'
p56
F-0.38036283574983204
sS'response'
p57
F1.0
sg15
I0
sS'aggregation'
p58
S'sum'
p59
sbsI1
g0
(g50
g2
Ntp60
Rp61
(dp62
g54
g55
sg56
F1.2277094636657584
sg57
F1.0
sg15
I1
sg58
g59
sbsI2
g0
(g50
g2
Ntp63
Rp64
(dp65
g54
S'tanh'
p66
sg56
F1.4261956922968309
sg57
F1.0
sg15
I2
sg58
g59
sbsI3
g0
(g50
g2
Ntp67
Rp68
(dp69
g54
g55
sg56
F0.5841107873253913
sg57
F1.0
sg15
I3
sg58
g59
sbsI4
g0
(g50
g2
Ntp70
Rp71
(dp72
g54
S'relu'
p73
sg56
F-1.1718870369021623
sg57
F1.0
sg15
I4
sg58
g59
sbsI5
g0
(g50
g2
Ntp74
Rp75
(dp76
g54
g66
sg56
F-0.6462589990292753
sg57
F1.0
sg15
I5
sg58
g59
sbsI6
g0
(g50
g2
Ntp77
Rp78
(dp79
g54
g73
sg56
F-1.368512436200386
sg57
F1.0
sg15
I6
sg58
g59
sbsI7
g0
(g50
g2
Ntp80
Rp81
(dp82
g54
g66
sg56
F0.2516777242147581
sg57
F1.0
sg15
I7
sg58
g59
sbssg15
I689
sS'fitness'
p83
F97.21551612382088
sb.