ccopy_reg
_reconstructor
p0
(cneat.genome
DefaultGenome
p1
c__builtin__
object
p2
Ntp3
Rp4
(dp5
S'connections'
p6
(dp7
(I-1
I5
tp8
g0
(cneat.genes
DefaultConnectionGene
p9
g2
Ntp10
Rp11
(dp12
S'enabled'
p13
I01
sS'weight'
p14
F2.360094242964004
sS'key'
p15
g8
sbs(I5
I0
tp16
g0
(g9
g2
Ntp17
Rp18
(dp19
g13
I01
sg14
F0.47399115812288173
sg15
g16
sbs(I-2
I7
tp20
g0
(g9
g2
Ntp21
Rp22
(dp23
g13
I01
sg14
F1.3390710858497517
sg15
g20
sbs(I0
I4
tp24
g0
(g9
g2
Ntp25
Rp26
(dp27
g13
I01
sg14
F-0.1264931575009561
sg15
g24
sbs(I4
I3
tp28
g0
(g9
g2
Ntp29
Rp30
(dp31
g13
I01
sg14
F-1.979488056374492
sg15
g28
sbs(I-2
I4
tp32
g0
(g9
g2
Ntp33
Rp34
(dp35
g13
I00
sg14
F-0.8092768244328096
sg15
g32
sbs(I5
I1
tp36
g0
(g9
g2
Ntp37
Rp38
(dp39
g13
I01
sg14
F1.2849277570550828
sg15
g36
sbs(I4
I1
tp40
g0
(g9
g2
Ntp41
Rp42
(dp43
g13
I01
sg14
F-1.555022713623183
sg15
g40
sbs(I-2
I6
tp44
g0
(g9
g2
Ntp45
Rp46
(dp47
g13
I00
sg14
F1.0184328614968654
sg15
g44
sbssS'nodes'
p48
(dp49
I0
g0
(cneat.genes
DefaultNodeGene
p50
g2
Ntp51
Rp52
(dp53
S'activation'
p54
S'tanh'
p55
sS'bias'
p56
F0.5882194542124115
sS'response'
p57
F1.0
sg15
I0
sS'aggregation'
p58
S'sum'
p59
sbsI1
g0
(g50
g2
Ntp60
Rp61
(dp62
g54
S'tanh'
p63
sg56
F-0.05568894867542179
sg57
F1.0
sg15
I1
sg58
g59
sbsI2
g0
(g50
g2
Ntp64
Rp65
(dp66
g54
S'relu'
p67
sg56
F-0.023638923484305137
sg57
F1.0
sg15
I2
sg58
g59
sbsI3
g0
(g50
g2
Ntp68
Rp69
(dp70
g54
g55
sg56
F-0.16122505201174983
sg57
F1.0
sg15
I3
sg58
g59
sbsI4
g0
(g50
g2
Ntp71
Rp72
(dp73
g54
g55
sg56
F-1.1162456508401968
sg57
F1.0
sg15
I4
sg58
g59
sbsI5
g0
(g50
g2
Ntp74
Rp75
(dp76
g54
g67
sg56
F0.9902787902647929
sg57
F1.0
sg15
I5
sg58
g59
sbsI6
g0
(g50
g2
Ntp77
Rp78
(dp79
g54
g55
sg56
F-1.3123386849129803
sg57
F1.0
sg15
I6
sg58
g59
sbsI7
g0
(g50
g2
Ntp80
Rp81
(dp82
g54
g67
sg56
F1.3488240194702241
sg57
F1.0
sg15
I7
sg58
g59
sbssg15
I472
sS'fitness'
p83
F398.55591882041864
sb.