ccopy_reg
_reconstructor
p0
(cneat.genome
DefaultGenome
p1
c__builtin__
object
p2
Ntp3
Rp4
(dp5
S'connections'
p6
(dp7
(I6
I4
tp8
g0
(cneat.genes
DefaultConnectionGene
p9
g2
Ntp10
Rp11
(dp12
S'enabled'
p13
I01
sS'weight'
p14
F-1.1228831629072906
sS'key'
p15
g8
sbs(I5
I0
tp16
g0
(g9
g2
Ntp17
Rp18
(dp19
g13
I01
sg14
F-0.5251807564259061
sg15
g16
sbs(I-2
I5
tp20
g0
(g9
g2
Ntp21
Rp22
(dp23
g13
I01
sg14
F-0.41769188384670264
sg15
g20
sbs(I-1
I2
tp24
g0
(g9
g2
Ntp25
Rp26
(dp27
g13
I01
sg14
F1.2742243922634486
sg15
g24
sbs(I4
I3
tp28
g0
(g9
g2
Ntp29
Rp30
(dp31
g13
I01
sg14
F1.5401800628538502
sg15
g28
sbs(I4
I2
tp32
g0
(g9
g2
Ntp33
Rp34
(dp35
g13
I00
sg14
F-0.934813380575653
sg15
g32
sbs(I-1
I4
tp36
g0
(g9
g2
Ntp37
Rp38
(dp39
g13
I00
sg14
F-0.6554226275861162
sg15
g36
sbs(I5
I2
tp40
g0
(g9
g2
Ntp41
Rp42
(dp43
g13
I00
sg14
F0.2833104592174862
sg15
g40
sbs(I-1
I6
tp44
g0
(g9
g2
Ntp45
Rp46
(dp47
g13
I01
sg14
F1.298164848371182
sg15
g44
sbssS'nodes'
p48
(dp49
I0
g0
(cneat.genes
DefaultNodeGene
p50
g2
Ntp51
Rp52
(dp53
S'activation'
p54
S'tanh'
p55
sS'bias'
p56
F1.1998586996287808
sS'response'
p57
F1.0
sg15
I0
sS'aggregation'
p58
S'sum'
p59
sbsI1
g0
(g50
g2
Ntp60
Rp61
(dp62
g54
S'relu'
p63
sg56
F-1.7215021575384957
sg57
F1.0
sg15
I1
sg58
g59
sbsI2
g0
(g50
g2
Ntp64
Rp65
(dp66
g54
g63
sg56
F1.6814578060984189
sg57
F1.0
sg15
I2
sg58
g59
sbsI3
g0
(g50
g2
Ntp67
Rp68
(dp69
g54
g63
sg56
F0.6375848633131728
sg57
F1.0
sg15
I3
sg58
g59
sbsI4
g0
(g50
g2
Ntp70
Rp71
(dp72
g54
g63
sg56
F1.5381420323072825
sg57
F1.0
sg15
I4
sg58
g59
sbsI5
g0
(g50
g2
Ntp73
Rp74
(dp75
g54
g63
sg56
F-1.7207015192691242
sg57
F1.0
sg15
I5
sg58
g59
sbsI6
g0
(g50
g2
Ntp76
Rp77
(dp78
g54
g63
sg56
F2.453590286097977
sg57
F1.0
sg15
I6
sg58
g59
sbssg15
I2008
sS'fitness'
p79
F407.972195968158
sb.