ccopy_reg
_reconstructor
p0
(cneat.genome
DefaultGenome
p1
c__builtin__
object
p2
Ntp3
Rp4
(dp5
S'connections'
p6
(dp7
(I6
I4
tp8
g0
(cneat.genes
DefaultConnectionGene
p9
g2
Ntp10
Rp11
(dp12
S'enabled'
p13
I01
sS'weight'
p14
F-0.596106461460594
sS'key'
p15
g8
sbs(I-2
I5
tp16
g0
(g9
g2
Ntp17
Rp18
(dp19
g13
I01
sg14
F-1.2911253666422586
sg15
g16
sbs(I4
I3
tp20
g0
(g9
g2
Ntp21
Rp22
(dp23
g13
I01
sg14
F-0.07929318358110704
sg15
g20
sbs(I-1
I2
tp24
g0
(g9
g2
Ntp25
Rp26
(dp27
g13
I01
sg14
F1.3575786129250043
sg15
g24
sbs(I5
I0
tp28
g0
(g9
g2
Ntp29
Rp30
(dp31
g13
I01
sg14
F-0.7704768040077457
sg15
g28
sbs(I4
I2
tp32
g0
(g9
g2
Ntp33
Rp34
(dp35
g13
I00
sg14
F-0.8564833896864619
sg15
g32
sbs(I-1
I4
tp36
g0
(g9
g2
Ntp37
Rp38
(dp39
g13
I00
sg14
F-1.2822771368720642
sg15
g36
sbs(I5
I2
tp40
g0
(g9
g2
Ntp41
Rp42
(dp43
g13
I01
sg14
F1.4676660021115582
sg15
g40
sbs(I-1
I6
tp44
g0
(g9
g2
Ntp45
Rp46
(dp47
g13
I01
sg14
F1.1123648077098294
sg15
g44
sbssS'nodes'
p48
(dp49
I0
g0
(cneat.genes
DefaultNodeGene
p50
g2
Ntp51
Rp52
(dp53
S'activation'
p54
S'relu'
p55
sS'bias'
p56
F1.8933693816150674
sS'response'
p57
F1.0
sg15
I0
sS'aggregation'
p58
S'sum'
p59
sbsI1
g0
(g50
g2
Ntp60
Rp61
(dp62
g54
g55
sg56
F0.7985894324704433
sg57
F1.0
sg15
I1
sg58
g59
sbsI2
g0
(g50
g2
Ntp63
Rp64
(dp65
g54
S'tanh'
p66
sg56
F0.6486656282261878
sg57
F1.0
sg15
I2
sg58
g59
sbsI3
g0
(g50
g2
Ntp67
Rp68
(dp69
g54
g55
sg56
F0.26214602640295953
sg57
F1.0
sg15
I3
sg58
g59
sbsI4
g0
(g50
g2
Ntp70
Rp71
(dp72
g54
g55
sg56
F0.5576481939729837
sg57
F1.0
sg15
I4
sg58
g59
sbsI5
g0
(g50
g2
Ntp73
Rp74
(dp75
g54
g66
sg56
F-2.026470943019404
sg57
F1.0
sg15
I5
sg58
g59
sbsI6
g0
(g50
g2
Ntp76
Rp77
(dp78
g54
g66
sg56
F1.6284634375537834
sg57
F1.0
sg15
I6
sg58
g59
sbssg15
I1394
sS'fitness'
p79
F406.85563250253296
sb.