ccopy_reg
_reconstructor
p0
(cneat.genome
DefaultGenome
p1
c__builtin__
object
p2
Ntp3
Rp4
(dp5
S'connections'
p6
(dp7
(I-1
I5
tp8
g0
(cneat.genes
DefaultConnectionGene
p9
g2
Ntp10
Rp11
(dp12
S'enabled'
p13
I01
sS'weight'
p14
F0.016619254313133325
sS'key'
p15
g8
sbs(I5
I0
tp16
g0
(g9
g2
Ntp17
Rp18
(dp19
g13
I01
sg14
F0.42181807138075367
sg15
g16
sbs(I4
I3
tp20
g0
(g9
g2
Ntp21
Rp22
(dp23
g13
I01
sg14
F-2.265824221676534
sg15
g20
sbs(I5
I1
tp24
g0
(g9
g2
Ntp25
Rp26
(dp27
g13
I01
sg14
F0.7229837692346351
sg15
g24
sbs(I-2
I4
tp28
g0
(g9
g2
Ntp29
Rp30
(dp31
g13
I01
sg14
F0.04784540751103822
sg15
g28
sbs(I4
I1
tp32
g0
(g9
g2
Ntp33
Rp34
(dp35
g13
I01
sg14
F2.3381300866812063
sg15
g32
sbssS'nodes'
p36
(dp37
I0
g0
(cneat.genes
DefaultNodeGene
p38
g2
Ntp39
Rp40
(dp41
S'activation'
p42
S'tanh'
p43
sS'bias'
p44
F-0.13551713325882025
sS'response'
p45
F1.0
sg15
I0
sS'aggregation'
p46
S'sum'
p47
sbsI1
g0
(g38
g2
Ntp48
Rp49
(dp50
g42
g43
sg44
F1.4440441630781113
sg45
F1.0
sg15
I1
sg46
g47
sbsI2
g0
(g38
g2
Ntp51
Rp52
(dp53
g42
g43
sg44
F-0.2619227333388582
sg45
F1.0
sg15
I2
sg46
g47
sbsI3
g0
(g38
g2
Ntp54
Rp55
(dp56
g42
S'relu'
p57
sg44
F3.81662919313007
sg45
F1.0
sg15
I3
sg46
g47
sbsI4
g0
(g38
g2
Ntp58
Rp59
(dp60
g42
g43
sg44
F1.2901866445693149
sg45
F1.0
sg15
I4
sg46
g47
sbsI5
g0
(g38
g2
Ntp61
Rp62
(dp63
g42
g43
sg44
F-1.5253865791380992
sg45
F1.0
sg15
I5
sg46
g47
sbssg15
I256
sS'fitness'
p64
F297.0717010795651
sb.