ccopy_reg
_reconstructor
p0
(cneat.genome
DefaultGenome
p1
c__builtin__
object
p2
Ntp3
Rp4
(dp5
S'connections'
p6
(dp7
(I-2
I5
tp8
g0
(cneat.genes
DefaultConnectionGene
p9
g2
Ntp10
Rp11
(dp12
S'enabled'
p13
I01
sS'weight'
p14
F-4.236806125682436
sS'key'
p15
g8
sbs(I4
I6
tp16
g0
(g9
g2
Ntp17
Rp18
(dp19
g13
I01
sg14
F-0.3439062664038771
sg15
g16
sbs(I5
I0
tp20
g0
(g9
g2
Ntp21
Rp22
(dp23
g13
I01
sg14
F-0.5488520642208999
sg15
g20
sbs(I-1
I2
tp24
g0
(g9
g2
Ntp25
Rp26
(dp27
g13
I01
sg14
F1.7029656395504267
sg15
g24
sbs(I4
I3
tp28
g0
(g9
g2
Ntp29
Rp30
(dp31
g13
I01
sg14
F1.1512367111672137
sg15
g28
sbs(I-1
I4
tp32
g0
(g9
g2
Ntp33
Rp34
(dp35
g13
I01
sg14
F1.4660408290814615
sg15
g32
sbs(I5
I2
tp36
g0
(g9
g2
Ntp37
Rp38
(dp39
g13
I01
sg14
F2.058506054314951
sg15
g36
sbs(I6
I5
tp40
g0
(g9
g2
Ntp41
Rp42
(dp43
g13
I01
sg14
F0.4013725113018766
sg15
g40
sbs(I-2
I6
tp44
g0
(g9
g2
Ntp45
Rp46
(dp47
g13
I01
sg14
F-7.941053780435858e-06
sg15
g44
sbssS'nodes'
p48
(dp49
I0
g0
(cneat.genes
DefaultNodeGene
p50
g2
Ntp51
Rp52
(dp53
S'activation'
p54
S'relu'
p55
sS'bias'
p56
F0.21856491002883124
sS'response'
p57
F1.0
sg15
I0
sS'aggregation'
p58
S'sum'
p59
sbsI1
g0
(g50
g2
Ntp60
Rp61
(dp62
g54
S'tanh'
p63
sg56
F0.21310758547781472
sg57
F1.0
sg15
I1
sg58
g59
sbsI2
g0
(g50
g2
Ntp64
Rp65
(dp66
g54
g63
sg56
F0.5031972412974676
sg57
F1.0
sg15
I2
sg58
g59
sbsI3
g0
(g50
g2
Ntp67
Rp68
(dp69
g54
g63
sg56
F0.5072694704761589
sg57
F1.0
sg15
I3
sg58
g59
sbsI4
g0
(g50
g2
Ntp70
Rp71
(dp72
g54
g55
sg56
F-0.059864895232254745
sg57
F1.0
sg15
I4
sg58
g59
sbsI5
g0
(g50
g2
Ntp73
Rp74
(dp75
g54
S'tanh'
p76
sg56
F-1.9447397209442656
sg57
F1.0
sg15
I5
sg58
g59
sbsI6
g0
(g50
g2
Ntp77
Rp78
(dp79
g54
g63
sg56
F-2.034170496168539
sg57
F1.0
sg15
I6
sg58
g59
sbssg15
I1578
sS'fitness'
p80
F408.2143426180807
sb.