ccopy_reg
_reconstructor
p0
(cneat.genome
DefaultGenome
p1
c__builtin__
object
p2
Ntp3
Rp4
(dp5
S'connections'
p6
(dp7
(I6
I4
tp8
g0
(cneat.genes
DefaultConnectionGene
p9
g2
Ntp10
Rp11
(dp12
S'enabled'
p13
I01
sS'weight'
p14
F-0.7498268401755548
sS'key'
p15
g8
sbs(I-2
I1
tp16
g0
(g9
g2
Ntp17
Rp18
(dp19
g13
I01
sg14
F-1.3638045291300294
sg15
g16
sbs(I5
I0
tp20
g0
(g9
g2
Ntp21
Rp22
(dp23
g13
I01
sg14
F-2.0645464470898993
sg15
g20
sbs(I-2
I5
tp24
g0
(g9
g2
Ntp25
Rp26
(dp27
g13
I01
sg14
F-1.2585226236826066
sg15
g24
sbs(I-1
I2
tp28
g0
(g9
g2
Ntp29
Rp30
(dp31
g13
I01
sg14
F1.7856074247540747
sg15
g28
sbs(I4
I3
tp32
g0
(g9
g2
Ntp33
Rp34
(dp35
g13
I01
sg14
F-0.5855121309918836
sg15
g32
sbs(I4
I2
tp36
g0
(g9
g2
Ntp37
Rp38
(dp39
g13
I00
sg14
F-0.030663238019945194
sg15
g36
sbs(I-1
I4
tp40
g0
(g9
g2
Ntp41
Rp42
(dp43
g13
I00
sg14
F-0.9457014985183343
sg15
g40
sbs(I5
I2
tp44
g0
(g9
g2
Ntp45
Rp46
(dp47
g13
I01
sg14
F0.9830446079570405
sg15
g44
sbs(I-1
I6
tp48
g0
(g9
g2
Ntp49
Rp50
(dp51
g13
I01
sg14
F1.8166510562738667
sg15
g48
sbssS'nodes'
p52
(dp53
I0
g0
(cneat.genes
DefaultNodeGene
p54
g2
Ntp55
Rp56
(dp57
S'activation'
p58
S'tanh'
p59
sS'bias'
p60
F0.6936224731725034
sS'response'
p61
F1.0
sg15
I0
sS'aggregation'
p62
S'sum'
p63
sbsI1
g0
(g54
g2
Ntp64
Rp65
(dp66
g58
S'relu'
p67
sg60
F1.340078104705234
sg61
F1.0
sg15
I1
sg62
g63
sbsI2
g0
(g54
g2
Ntp68
Rp69
(dp70
g58
S'tanh'
p71
sg60
F-1.4242207703293053
sg61
F1.0
sg15
I2
sg62
g63
sbsI3
g0
(g54
g2
Ntp72
Rp73
(dp74
g58
g59
sg60
F1.5365974836581513
sg61
F1.0
sg15
I3
sg62
g63
sbsI4
g0
(g54
g2
Ntp75
Rp76
(dp77
g58
g59
sg60
F0.24890487352527366
sg61
F1.0
sg15
I4
sg62
g63
sbsI5
g0
(g54
g2
Ntp78
Rp79
(dp80
g58
g59
sg60
F-2.1443318140829035
sg61
F1.0
sg15
I5
sg62
g63
sbsI6
g0
(g54
g2
Ntp81
Rp82
(dp83
g58
g59
sg60
F1.2925285467387555
sg61
F1.0
sg15
I6
sg62
g63
sbssg15
I1844
sS'fitness'
p84
F407.46177964520416
sb.