ccopy_reg
_reconstructor
p0
(cneat.genome
DefaultGenome
p1
c__builtin__
object
p2
Ntp3
Rp4
(dp5
S'connections'
p6
(dp7
(I0
I1
tp8
g0
(cneat.genes
DefaultConnectionGene
p9
g2
Ntp10
Rp11
(dp12
S'enabled'
p13
I01
sS'weight'
p14
F0.9673722985647686
sS'key'
p15
g8
sbs(I-1
I5
tp16
g0
(g9
g2
Ntp17
Rp18
(dp19
g13
I01
sg14
F-1.766004998523493
sg15
g16
sbs(I4
I1
tp20
g0
(g9
g2
Ntp21
Rp22
(dp23
g13
I00
sg14
F0.6550361654843553
sg15
g20
sbs(I6
I1
tp24
g0
(g9
g2
Ntp25
Rp26
(dp27
g13
I01
sg14
F0.1535237025485663
sg15
g24
sbs(I7
I4
tp28
g0
(g9
g2
Ntp29
Rp30
(dp31
g13
I01
sg14
F1.0452384216875166
sg15
g28
sbs(I5
I0
tp32
g0
(g9
g2
Ntp33
Rp34
(dp35
g13
I01
sg14
F-0.05260282414780382
sg15
g32
sbs(I-2
I4
tp36
g0
(g9
g2
Ntp37
Rp38
(dp39
g13
I00
sg14
F0.06528394573693236
sg15
g36
sbs(I5
I1
tp40
g0
(g9
g2
Ntp41
Rp42
(dp43
g13
I01
sg14
F0.2716869008564686
sg15
g40
sbs(I4
I3
tp44
g0
(g9
g2
Ntp45
Rp46
(dp47
g13
I01
sg14
F-3.1379934270019065
sg15
g44
sbs(I0
I3
tp48
g0
(g9
g2
Ntp49
Rp50
(dp51
g13
I01
sg14
F0.6048284820638732
sg15
g48
sbs(I-2
I7
tp52
g0
(g9
g2
Ntp53
Rp54
(dp55
g13
I01
sg14
F0.5350920216183297
sg15
g52
sbssS'nodes'
p56
(dp57
I0
g0
(cneat.genes
DefaultNodeGene
p58
g2
Ntp59
Rp60
(dp61
S'activation'
p62
S'relu'
p63
sS'bias'
p64
F-0.02946149770880646
sS'response'
p65
F1.0
sg15
I0
sS'aggregation'
p66
S'sum'
p67
sbsI1
g0
(g58
g2
Ntp68
Rp69
(dp70
g62
S'tanh'
p71
sg64
F0.29231035145725415
sg65
F1.0
sg15
I1
sg66
g67
sbsI2
g0
(g58
g2
Ntp72
Rp73
(dp74
g62
S'tanh'
p75
sg64
F0.8361292943538969
sg65
F1.0
sg15
I2
sg66
g67
sbsI3
g0
(g58
g2
Ntp76
Rp77
(dp78
g62
g71
sg64
F-0.23077789410831098
sg65
F1.0
sg15
I3
sg66
g67
sbsI4
g0
(g58
g2
Ntp79
Rp80
(dp81
g62
g71
sg64
F-4.2232592827991455
sg65
F1.0
sg15
I4
sg66
g67
sbsI5
g0
(g58
g2
Ntp82
Rp83
(dp84
g62
g75
sg64
F-0.2231036820481297
sg65
F1.0
sg15
I5
sg66
g67
sbsI6
g0
(g58
g2
Ntp85
Rp86
(dp87
g62
g75
sg64
F-0.025326042411995153
sg65
F1.0
sg15
I6
sg66
g67
sbsI7
g0
(g58
g2
Ntp88
Rp89
(dp90
g62
g71
sg64
F0.04105979559790089
sg65
F1.0
sg15
I7
sg66
g67
sbssg15
I686
sS'fitness'
p91
F397.0391117538327
sb.