ccopy_reg
_reconstructor
p0
(cneat.genome
DefaultGenome
p1
c__builtin__
object
p2
Ntp3
Rp4
(dp5
S'connections'
p6
(dp7
(I-1
I5
tp8
g0
(cneat.genes
DefaultConnectionGene
p9
g2
Ntp10
Rp11
(dp12
S'enabled'
p13
I01
sS'weight'
p14
F-1.363147805205009
sS'key'
p15
g8
sbs(I5
I0
tp16
g0
(g9
g2
Ntp17
Rp18
(dp19
g13
I01
sg14
F0.7088861307704484
sg15
g16
sbs(I4
I1
tp20
g0
(g9
g2
Ntp21
Rp22
(dp23
g13
I01
sg14
F0.8221187777653982
sg15
g20
sbs(I7
I6
tp24
g0
(g9
g2
Ntp25
Rp26
(dp27
g13
I01
sg14
F-0.1861051244856951
sg15
g24
sbs(I4
I3
tp28
g0
(g9
g2
Ntp29
Rp30
(dp31
g13
I01
sg14
F-3.394925928003453
sg15
g28
sbs(I0
I4
tp32
g0
(g9
g2
Ntp33
Rp34
(dp35
g13
I01
sg14
F0.5270782418409886
sg15
g32
sbs(I5
I1
tp36
g0
(g9
g2
Ntp37
Rp38
(dp39
g13
I01
sg14
F0.9167246263087689
sg15
g36
sbs(I-1
I6
tp40
g0
(g9
g2
Ntp41
Rp42
(dp43
g13
I01
sg14
F-0.6442572493347927
sg15
g40
sbs(I-2
I7
tp44
g0
(g9
g2
Ntp45
Rp46
(dp47
g13
I01
sg14
F0.9814296810004287
sg15
g44
sbs(I-2
I6
tp48
g0
(g9
g2
Ntp49
Rp50
(dp51
g13
I00
sg14
F-1.6721188906541085
sg15
g48
sbssS'nodes'
p52
(dp53
I0
g0
(cneat.genes
DefaultNodeGene
p54
g2
Ntp55
Rp56
(dp57
S'activation'
p58
S'relu'
p59
sS'bias'
p60
F1.3063150158477763
sS'response'
p61
F1.0
sg15
I0
sS'aggregation'
p62
S'sum'
p63
sbsI1
g0
(g54
g2
Ntp64
Rp65
(dp66
g58
S'tanh'
p67
sg60
F1.7226307986815745
sg61
F1.0
sg15
I1
sg62
g63
sbsI2
g0
(g54
g2
Ntp68
Rp69
(dp70
g58
g67
sg60
F0.7355434818183393
sg61
F1.0
sg15
I2
sg62
g63
sbsI3
g0
(g54
g2
Ntp71
Rp72
(dp73
g58
g67
sg60
F1.2151542584898667
sg61
F1.0
sg15
I3
sg62
g63
sbsI4
g0
(g54
g2
Ntp74
Rp75
(dp76
g58
g59
sg60
F-0.87566949587467
sg61
F1.0
sg15
I4
sg62
g63
sbsI5
g0
(g54
g2
Ntp77
Rp78
(dp79
g58
g67
sg60
F-0.9658794151366649
sg61
F1.0
sg15
I5
sg62
g63
sbsI6
g0
(g54
g2
Ntp80
Rp81
(dp82
g58
g67
sg60
F-1.964415929843467
sg61
F1.0
sg15
I6
sg62
g63
sbsI7
g0
(g54
g2
Ntp83
Rp84
(dp85
g58
g59
sg60
F-1.3261436067811525
sg61
F1.0
sg15
I7
sg62
g63
sbssg15
I1068
sS'fitness'
p86
F497.8512566669609
sb.