ccopy_reg
_reconstructor
p0
(cneat.genome
DefaultGenome
p1
c__builtin__
object
p2
Ntp3
Rp4
(dp5
S'connections'
p6
(dp7
(I5
I0
tp8
g0
(cneat.genes
DefaultConnectionGene
p9
g2
Ntp10
Rp11
(dp12
S'enabled'
p13
I01
sS'weight'
p14
F-0.5488520642208999
sS'key'
p15
g8
sbs(I6
I7
tp16
g0
(g9
g2
Ntp17
Rp18
(dp19
g13
I01
sg14
F3.112361698988397
sg15
g16
sbs(I-2
I5
tp20
g0
(g9
g2
Ntp21
Rp22
(dp23
g13
I01
sg14
F-0.43760181716329594
sg15
g20
sbs(I8
I5
tp24
g0
(g9
g2
Ntp25
Rp26
(dp27
g13
I01
sg14
F1.0140608241273534
sg15
g24
sbs(I-1
I2
tp28
g0
(g9
g2
Ntp29
Rp30
(dp31
g13
I01
sg14
F1.7689798120493478
sg15
g28
sbs(I4
I6
tp32
g0
(g9
g2
Ntp33
Rp34
(dp35
g13
I01
sg14
F-0.3439062664038771
sg15
g32
sbs(I7
I5
tp36
g0
(g9
g2
Ntp37
Rp38
(dp39
g13
I00
sg14
F1.187902719195008
sg15
g36
sbs(I4
I3
tp40
g0
(g9
g2
Ntp41
Rp42
(dp43
g13
I01
sg14
F0.9029754612500923
sg15
g40
sbs(I6
I8
tp44
g0
(g9
g2
Ntp45
Rp46
(dp47
g13
I01
sg14
F0.5650046223431462
sg15
g44
sbs(I-1
I4
tp48
g0
(g9
g2
Ntp49
Rp50
(dp51
g13
I01
sg14
F0.7672592886324618
sg15
g48
sbs(I5
I2
tp52
g0
(g9
g2
Ntp53
Rp54
(dp55
g13
I01
sg14
F2.946992409304092
sg15
g52
sbs(I6
I5
tp56
g0
(g9
g2
Ntp57
Rp58
(dp59
g13
I00
sg14
F0.19239612181865892
sg15
g56
sbs(I-1
I0
tp60
g0
(g9
g2
Ntp61
Rp62
(dp63
g13
I01
sg14
F-0.26628543457551257
sg15
g60
sbssS'nodes'
p64
(dp65
I0
g0
(cneat.genes
DefaultNodeGene
p66
g2
Ntp67
Rp68
(dp69
S'activation'
p70
S'relu'
p71
sS'bias'
p72
F1.0005933011551904
sS'response'
p73
F1.0
sg15
I0
sS'aggregation'
p74
S'sum'
p75
sbsI1
g0
(g66
g2
Ntp76
Rp77
(dp78
g70
S'tanh'
p79
sg72
F-1.397207089365401
sg73
F1.0
sg15
I1
sg74
g75
sbsI2
g0
(g66
g2
Ntp80
Rp81
(dp82
g70
g79
sg72
F0.11031295631990945
sg73
F1.0
sg15
I2
sg74
g75
sbsI3
g0
(g66
g2
Ntp83
Rp84
(dp85
g70
g71
sg72
F1.070251286562513
sg73
F1.0
sg15
I3
sg74
g75
sbsI4
g0
(g66
g2
Ntp86
Rp87
(dp88
g70
g71
sg72
F-0.7091692589798502
sg73
F1.0
sg15
I4
sg74
g75
sbsI5
g0
(g66
g2
Ntp89
Rp90
(dp91
g70
S'tanh'
p92
sg72
F-1.9447397209442656
sg73
F1.0
sg15
I5
sg74
g75
sbsI6
g0
(g66
g2
Ntp93
Rp94
(dp95
g70
g79
sg72
F1.3954404829928329
sg73
F1.0
sg15
I6
sg74
g75
sbsI7
g0
(g66
g2
Ntp96
Rp97
(dp98
g70
g92
sg72
F0.2934238445622208
sg73
F1.0
sg15
I7
sg74
g75
sbsI8
g0
(g66
g2
Ntp99
Rp100
(dp101
g70
g71
sg72
F0.454918286334798
sg73
F1.0
sg15
I8
sg74
g75
sbssg15
I1788
sS'fitness'
p102
F497.6707602252141
sb.