ccopy_reg
_reconstructor
p0
(cneat.genome
DefaultGenome
p1
c__builtin__
object
p2
Ntp3
Rp4
(dp5
S'connections'
p6
(dp7
(I-2
I5
tp8
g0
(cneat.genes
DefaultConnectionGene
p9
g2
Ntp10
Rp11
(dp12
S'enabled'
p13
I01
sS'weight'
p14
F-0.8181250596505454
sS'key'
p15
g8
sbs(I5
I0
tp16
g0
(g9
g2
Ntp17
Rp18
(dp19
g13
I01
sg14
F-1.961307136450577
sg15
g16
sbs(I-1
I2
tp20
g0
(g9
g2
Ntp21
Rp22
(dp23
g13
I01
sg14
F2.393315083673818
sg15
g20
sbs(I4
I3
tp24
g0
(g9
g2
Ntp25
Rp26
(dp27
g13
I01
sg14
F1.0656375740685269
sg15
g24
sbs(I4
I2
tp28
g0
(g9
g2
Ntp29
Rp30
(dp31
g13
I00
sg14
F-0.1250664928681733
sg15
g28
sbs(I-1
I4
tp32
g0
(g9
g2
Ntp33
Rp34
(dp35
g13
I01
sg14
F-2.3590798979589076
sg15
g32
sbs(I-2
I6
tp36
g0
(g9
g2
Ntp37
Rp38
(dp39
g13
I01
sg14
F0.4622783373300654
sg15
g36
sbs(I5
I2
tp40
g0
(g9
g2
Ntp41
Rp42
(dp43
g13
I01
sg14
F2.03414945087804
sg15
g40
sbs(I6
I5
tp44
g0
(g9
g2
Ntp45
Rp46
(dp47
g13
I01
sg14
F-0.09274694006674075
sg15
g44
sbs(I4
I6
tp48
g0
(g9
g2
Ntp49
Rp50
(dp51
g13
I01
sg14
F-0.6997487696794911
sg15
g48
sbssS'nodes'
p52
(dp53
I0
g0
(cneat.genes
DefaultNodeGene
p54
g2
Ntp55
Rp56
(dp57
S'activation'
p58
S'relu'
p59
sS'bias'
p60
F1.5491259100720183
sS'response'
p61
F1.0
sg15
I0
sS'aggregation'
p62
S'sum'
p63
sbsI1
g0
(g54
g2
Ntp64
Rp65
(dp66
g58
S'tanh'
p67
sg60
F0.9061956176310811
sg61
F1.0
sg15
I1
sg62
g63
sbsI2
g0
(g54
g2
Ntp68
Rp69
(dp70
g58
g67
sg60
F0.5386116240591041
sg61
F1.0
sg15
I2
sg62
g63
sbsI3
g0
(g54
g2
Ntp71
Rp72
(dp73
g58
g59
sg60
F0.698089290515447
sg61
F1.0
sg15
I3
sg62
g63
sbsI4
g0
(g54
g2
Ntp74
Rp75
(dp76
g58
g59
sg60
F-0.040215375749981574
sg61
F1.0
sg15
I4
sg62
g63
sbsI5
g0
(g54
g2
Ntp77
Rp78
(dp79
g58
S'tanh'
p80
sg60
F-2.026470943019404
sg61
F1.0
sg15
I5
sg62
g63
sbsI6
g0
(g54
g2
Ntp81
Rp82
(dp83
g58
g67
sg60
F0.42823570060942734
sg61
F1.0
sg15
I6
sg62
g63
sbssg15
I1288
sS'fitness'
p84
F497.821238619254
sb.