ccopy_reg
_reconstructor
p0
(cneat.genome
DefaultGenome
p1
c__builtin__
object
p2
Ntp3
Rp4
(dp5
S'connections'
p6
(dp7
(I-1
I5
tp8
g0
(cneat.genes
DefaultConnectionGene
p9
g2
Ntp10
Rp11
(dp12
S'enabled'
p13
I01
sS'weight'
p14
F-0.8060538011812288
sS'key'
p15
g8
sbs(I5
I0
tp16
g0
(g9
g2
Ntp17
Rp18
(dp19
g13
I01
sg14
F-0.8457369089061556
sg15
g16
sbs(I4
I8
tp20
g0
(g9
g2
Ntp21
Rp22
(dp23
g13
I01
sg14
F0.0636323962191665
sg15
g20
sbs(I8
I1
tp24
g0
(g9
g2
Ntp25
Rp26
(dp27
g13
I01
sg14
F0.24831395105935145
sg15
g24
sbs(I4
I3
tp28
g0
(g9
g2
Ntp29
Rp30
(dp31
g13
I01
sg14
F0.9873168897833046
sg15
g28
sbs(I0
I4
tp32
g0
(g9
g2
Ntp33
Rp34
(dp35
g13
I01
sg14
F-0.5953853015016556
sg15
g32
sbs(I5
I1
tp36
g0
(g9
g2
Ntp37
Rp38
(dp39
g13
I01
sg14
F1.4616618212934949
sg15
g36
sbs(I-2
I6
tp40
g0
(g9
g2
Ntp41
Rp42
(dp43
g13
I01
sg14
F0.5016989978924071
sg15
g40
sbs(I4
I1
tp44
g0
(g9
g2
Ntp45
Rp46
(dp47
g13
I00
sg14
F0.38504522328987534
sg15
g44
sbs(I-1
I6
tp48
g0
(g9
g2
Ntp49
Rp50
(dp51
g13
I00
sg14
F0.3239040628731974
sg15
g48
sbssS'nodes'
p52
(dp53
I0
g0
(cneat.genes
DefaultNodeGene
p54
g2
Ntp55
Rp56
(dp57
S'activation'
p58
S'tanh'
p59
sS'bias'
p60
F-1.4836203216292407
sS'response'
p61
F1.0
sg15
I0
sS'aggregation'
p62
S'sum'
p63
sbsI1
g0
(g54
g2
Ntp64
Rp65
(dp66
g58
g59
sg60
F1.807275688120558
sg61
F1.0
sg15
I1
sg62
g63
sbsI2
g0
(g54
g2
Ntp67
Rp68
(dp69
g58
g59
sg60
F0.43951686229383435
sg61
F1.0
sg15
I2
sg62
g63
sbsI3
g0
(g54
g2
Ntp70
Rp71
(dp72
g58
g59
sg60
F1.3328994735610669
sg61
F1.0
sg15
I3
sg62
g63
sbsI4
g0
(g54
g2
Ntp73
Rp74
(dp75
g58
S'relu'
p76
sg60
F-0.14564340354479305
sg61
F1.0
sg15
I4
sg62
g63
sbsI5
g0
(g54
g2
Ntp77
Rp78
(dp79
g58
g76
sg60
F-1.7998750267172638
sg61
F1.0
sg15
I5
sg62
g63
sbsI6
g0
(g54
g2
Ntp80
Rp81
(dp82
g58
g76
sg60
F0.3731450485874679
sg61
F1.0
sg15
I6
sg62
g63
sbsI8
g0
(g54
g2
Ntp83
Rp84
(dp85
g58
S'tanh'
p86
sg60
F-1.2123045343961971
sg61
F1.0
sg15
I8
sg62
g63
sbssg15
I1016
sS'fitness'
p87
F398.38161970213423
sb.