ccopy_reg
_reconstructor
p0
(cneat.genome
DefaultGenome
p1
c__builtin__
object
p2
Ntp3
Rp4
(dp5
S'connections'
p6
(dp7
(I7
I3
tp8
g0
(cneat.genes
DefaultConnectionGene
p9
g2
Ntp10
Rp11
(dp12
S'enabled'
p13
I01
sS'weight'
p14
F1.484453898456459
sS'key'
p15
g8
sbs(I7
I5
tp16
g0
(g9
g2
Ntp17
Rp18
(dp19
g13
I01
sg14
F0.11817821467347911
sg15
g16
sbs(I-1
I7
tp20
g0
(g9
g2
Ntp21
Rp22
(dp23
g13
I01
sg14
F1.193911734325501
sg15
g20
sbs(I5
I0
tp24
g0
(g9
g2
Ntp25
Rp26
(dp27
g13
I00
sg14
F-1.3295121155133063
sg15
g24
sbs(I-1
I5
tp28
g0
(g9
g2
Ntp29
Rp30
(dp31
g13
I01
sg14
F0.43331184683206125
sg15
g28
sbssS'nodes'
p32
(dp33
I0
g0
(cneat.genes
DefaultNodeGene
p34
g2
Ntp35
Rp36
(dp37
S'activation'
p38
S'relu'
p39
sS'bias'
p40
F-0.7294828780094926
sS'response'
p41
F1.0
sg15
I0
sS'aggregation'
p42
S'sum'
p43
sbsI1
g0
(g34
g2
Ntp44
Rp45
(dp46
g38
S'tanh'
p47
sg40
F1.2514644032005493
sg41
F1.0
sg15
I1
sg42
g43
sbsI2
g0
(g34
g2
Ntp48
Rp49
(dp50
g38
g47
sg40
F1.5984928015182862
sg41
F1.0
sg15
I2
sg42
g43
sbsI3
g0
(g34
g2
Ntp51
Rp52
(dp53
g38
g39
sg40
F-1.4710911501102673
sg41
F1.0
sg15
I3
sg42
g43
sbsI5
g0
(g34
g2
Ntp54
Rp55
(dp56
g38
g47
sg40
F-1.3375284560473082
sg41
F1.0
sg15
I5
sg42
g43
sbsI6
g0
(g34
g2
Ntp57
Rp58
(dp59
g38
S'tanh'
p60
sg40
F1.2098107108060094
sg41
F1.0
sg15
I6
sg42
g43
sbsI7
g0
(g34
g2
Ntp61
Rp62
(dp63
g38
g60
sg40
F-0.47112399636172164
sg41
F1.0
sg15
I7
sg42
g43
sbssg15
I1204
sS'fitness'
p64
F398.6076330577603
sb.