ccopy_reg
_reconstructor
p0
(cneat.genome
DefaultGenome
p1
c__builtin__
object
p2
Ntp3
Rp4
(dp5
S'connections'
p6
(dp7
(I-1
I5
tp8
g0
(cneat.genes
DefaultConnectionGene
p9
g2
Ntp10
Rp11
(dp12
S'enabled'
p13
I01
sS'weight'
p14
F1.6768954221620709
sS'key'
p15
g8
sbs(I5
I0
tp16
g0
(g9
g2
Ntp17
Rp18
(dp19
g13
I01
sg14
F-0.6593075491363793
sg15
g16
sbs(I-2
I4
tp20
g0
(g9
g2
Ntp21
Rp22
(dp23
g13
I00
sg14
F-0.24811315243528043
sg15
g20
sbs(I4
I3
tp24
g0
(g9
g2
Ntp25
Rp26
(dp27
g13
I01
sg14
F-2.0385304929098806
sg15
g24
sbs(I0
I4
tp28
g0
(g9
g2
Ntp29
Rp30
(dp31
g13
I01
sg14
F-0.13338546034914942
sg15
g28
sbs(I5
I1
tp32
g0
(g9
g2
Ntp33
Rp34
(dp35
g13
I01
sg14
F0.1231171135688605
sg15
g32
sbs(I4
I1
tp36
g0
(g9
g2
Ntp37
Rp38
(dp39
g13
I01
sg14
F-1.562030769486251
sg15
g36
sbs(I-2
I6
tp40
g0
(g9
g2
Ntp41
Rp42
(dp43
g13
I01
sg14
F1.0184328614968654
sg15
g40
sbssS'nodes'
p44
(dp45
I0
g0
(cneat.genes
DefaultNodeGene
p46
g2
Ntp47
Rp48
(dp49
S'activation'
p50
S'tanh'
p51
sS'bias'
p52
F-0.43386543481010686
sS'response'
p53
F1.0
sg15
I0
sS'aggregation'
p54
S'sum'
p55
sbsI1
g0
(g46
g2
Ntp56
Rp57
(dp58
g50
S'tanh'
p59
sg52
F0.6293172024423942
sg53
F1.0
sg15
I1
sg54
g55
sbsI2
g0
(g46
g2
Ntp60
Rp61
(dp62
g50
g51
sg52
F-0.546825653451532
sg53
F1.0
sg15
I2
sg54
g55
sbsI3
g0
(g46
g2
Ntp63
Rp64
(dp65
g50
g59
sg52
F2.6884138996325677
sg53
F1.0
sg15
I3
sg54
g55
sbsI4
g0
(g46
g2
Ntp66
Rp67
(dp68
g50
S'relu'
p69
sg52
F-1.1300920071570286
sg53
F1.0
sg15
I4
sg54
g55
sbsI5
g0
(g46
g2
Ntp70
Rp71
(dp72
g50
g51
sg52
F-0.9811501097970274
sg53
F1.0
sg15
I5
sg54
g55
sbsI6
g0
(g46
g2
Ntp73
Rp74
(dp75
g50
g51
sg52
F-1.3123386849129803
sg53
F1.0
sg15
I6
sg54
g55
sbssg15
I392
sS'fitness'
p76
F397.9025979094085
sb.