ccopy_reg
_reconstructor
p0
(cneat.genome
DefaultGenome
p1
c__builtin__
object
p2
Ntp3
Rp4
(dp5
S'connections'
p6
(dp7
(I-2
I5
tp8
g0
(cneat.genes
DefaultConnectionGene
p9
g2
Ntp10
Rp11
(dp12
S'enabled'
p13
I01
sS'weight'
p14
F-0.15444567708750434
sS'key'
p15
g8
sbs(I6
I7
tp16
g0
(g9
g2
Ntp17
Rp18
(dp19
g13
I01
sg14
F3.09456534827735
sg15
g16
sbs(I4
I3
tp20
g0
(g9
g2
Ntp21
Rp22
(dp23
g13
I01
sg14
F1.1634302485220127
sg15
g20
sbs(I-1
I2
tp24
g0
(g9
g2
Ntp25
Rp26
(dp27
g13
I01
sg14
F1.209769767331281
sg15
g24
sbs(I-1
I0
tp28
g0
(g9
g2
Ntp29
Rp30
(dp31
g13
I01
sg14
F-0.12831159350522092
sg15
g28
sbs(I7
I5
tp32
g0
(g9
g2
Ntp33
Rp34
(dp35
g13
I00
sg14
F1.3464213957012858
sg15
g32
sbs(I5
I0
tp36
g0
(g9
g2
Ntp37
Rp38
(dp39
g13
I01
sg14
F-0.8863912651225179
sg15
g36
sbs(I-1
I4
tp40
g0
(g9
g2
Ntp41
Rp42
(dp43
g13
I01
sg14
F0.3267538732183356
sg15
g40
sbs(I5
I2
tp44
g0
(g9
g2
Ntp45
Rp46
(dp47
g13
I01
sg14
F2.449857434558891
sg15
g44
sbs(I6
I5
tp48
g0
(g9
g2
Ntp49
Rp50
(dp51
g13
I00
sg14
F-0.5787571718008255
sg15
g48
sbs(I4
I6
tp52
g0
(g9
g2
Ntp53
Rp54
(dp55
g13
I01
sg14
F0.19204281581552074
sg15
g52
sbssS'nodes'
p56
(dp57
I0
g0
(cneat.genes
DefaultNodeGene
p58
g2
Ntp59
Rp60
(dp61
S'activation'
p62
S'relu'
p63
sS'bias'
p64
F1.0005933011551904
sS'response'
p65
F1.0
sg15
I0
sS'aggregation'
p66
S'sum'
p67
sbsI1
g0
(g58
g2
Ntp68
Rp69
(dp70
g62
S'tanh'
p71
sg64
F-0.45461348333497703
sg65
F1.0
sg15
I1
sg66
g67
sbsI2
g0
(g58
g2
Ntp72
Rp73
(dp74
g62
S'tanh'
p75
sg64
F1.2990251325446294
sg65
F1.0
sg15
I2
sg66
g67
sbsI3
g0
(g58
g2
Ntp76
Rp77
(dp78
g62
g63
sg64
F0.7546451877340603
sg65
F1.0
sg15
I3
sg66
g67
sbsI4
g0
(g58
g2
Ntp79
Rp80
(dp81
g62
g63
sg64
F-0.9298210582520897
sg65
F1.0
sg15
I4
sg66
g67
sbsI5
g0
(g58
g2
Ntp82
Rp83
(dp84
g62
g75
sg64
F-1.5351711094136835
sg65
F1.0
sg15
I5
sg66
g67
sbsI6
g0
(g58
g2
Ntp85
Rp86
(dp87
g62
g63
sg64
F1.778272086886742
sg65
F1.0
sg15
I6
sg66
g67
sbsI7
g0
(g58
g2
Ntp88
Rp89
(dp90
g62
g75
sg64
F0.03975159502056374
sg65
F1.0
sg15
I7
sg66
g67
sbssg15
I1690
sS'fitness'
p91
F498.48410183693846
sb.